target datalayout = "e-m:e-p270:32:32-p271:32:32-p272:64:64-i64:64-i128:128-f80:128-n8:16:32:64-S128"
target triple = "x86_64-pc-linux-gnu"

%struct.Tas_Par_t_ = type { i32, i32, i32, i32, i32, i32, i32, float, i32, i32, i32, i32, i32, i32 }
%struct.Tas_Man_t_ = type { %struct.Tas_Par_t_, ptr, %struct.Tas_Que_t_, %struct.Tas_Que_t_, %struct.Tas_Que_t_, ptr, ptr, ptr, ptr, %struct.Tas_Sto_t_, ptr, ptr, i32, ptr, ptr, i32, i32, i32, i32, i32, i32, i32, i64, i64, i64, i64 }
%struct.Tas_Que_t_ = type { i32, i32, i32, ptr }
%struct.Tas_Sto_t_ = type { i32, i32, ptr }
%struct.Vec_Int_t_ = type { i32, i32, ptr }
%struct.Gia_Obj_t_ = type <{ i64, i32 }>

; Function Attrs: inlinehint nounwind uwtable
define internal i32 @Vec_IntEntry(ptr noundef %0, i32 noundef %1) #5 {
  %3 = alloca ptr, align 8
  %4 = alloca i32, align 4
  store ptr %0, ptr %3, align 8, !tbaa !54
  store i32 %1, ptr %4, align 4, !tbaa !22
  %5 = load ptr, ptr %3, align 8, !tbaa !54
  %6 = getelementptr inbounds nuw %struct.Vec_Int_t_, ptr %5, i32 0, i32 2
  %7 = load ptr, ptr %6, align 8, !tbaa !58
  %8 = load i32, ptr %4, align 4, !tbaa !22
  %9 = sext i32 %8 to i64
  %10 = getelementptr inbounds i32, ptr %7, i64 %9
  %11 = load i32, ptr %10, align 4, !tbaa !22
  ret i32 %11
}

; Function Attrs: inlinehint nounwind uwtable
define internal i32 @Tas_QueFinish(ptr noundef %0) #5 {
  %2 = alloca ptr, align 8
  %3 = alloca i32, align 4
  store ptr %0, ptr %2, align 8, !tbaa !86
  call void @llvm.lifetime.start.p0(i64 4, ptr %3) #11
  %4 = load ptr, ptr %2, align 8, !tbaa !86
  %5 = getelementptr inbounds nuw %struct.Tas_Que_t_, ptr %4, i32 0, i32 0
  %6 = load i32, ptr %5, align 8, !tbaa !101
  store i32 %6, ptr %3, align 4, !tbaa !22
  %7 = load ptr, ptr %2, align 8, !tbaa !86
  call void @Tas_QuePush(ptr noundef %7, ptr noundef null)
  %8 = load ptr, ptr %2, align 8, !tbaa !86
  %9 = getelementptr inbounds nuw %struct.Tas_Que_t_, ptr %8, i32 0, i32 1
  %10 = load i32, ptr %9, align 4, !tbaa !102
  %11 = load ptr, ptr %2, align 8, !tbaa !86
  %12 = getelementptr inbounds nuw %struct.Tas_Que_t_, ptr %11, i32 0, i32 0
  store i32 %10, ptr %12, align 8, !tbaa !101
  %13 = load i32, ptr %3, align 4, !tbaa !22
  call void @llvm.lifetime.end.p0(i64 4, ptr %3) #11
  ret i32 %13
}

; Function Attrs: inlinehint nounwind uwtable
define internal i32 @Tas_VarDecLevel(ptr noundef %0, ptr noundef %1) #5 {
  %3 = alloca ptr, align 8
  %4 = alloca ptr, align 8
  store ptr %0, ptr %3, align 8, !tbaa !23
  store ptr %1, ptr %4, align 8, !tbaa !80
  %5 = load ptr, ptr %3, align 8, !tbaa !23
  %6 = getelementptr inbounds nuw %struct.Tas_Man_t_, ptr %5, i32 0, i32 6
  %7 = load ptr, ptr %6, align 8, !tbaa !45
  %8 = load ptr, ptr %4, align 8, !tbaa !80
  %9 = getelementptr inbounds nuw %struct.Gia_Obj_t_, ptr %8, i32 0, i32 1
  %10 = load i32, ptr %9, align 4, !tbaa !111
  %11 = mul i32 3, %10
  %12 = call i32 @Vec_IntEntry(ptr noundef %7, i32 noundef %11)
  ret i32 %12
}

; Function Attrs: inlinehint nounwind uwtable
define internal void @Tas_QuePush(ptr noundef %0, ptr noundef %1) #5 {
  %3 = alloca ptr, align 8
  %4 = alloca ptr, align 8
  store ptr %0, ptr %3, align 8, !tbaa !86
  store ptr %1, ptr %4, align 8, !tbaa !80
  %5 = load ptr, ptr %3, align 8, !tbaa !86
  %6 = getelementptr inbounds nuw %struct.Tas_Que_t_, ptr %5, i32 0, i32 1
  %7 = load i32, ptr %6, align 4, !tbaa !102
  %8 = load ptr, ptr %3, align 8, !tbaa !86
  %9 = getelementptr inbounds nuw %struct.Tas_Que_t_, ptr %8, i32 0, i32 2
  %10 = load i32, ptr %9, align 8, !tbaa !166
  %11 = icmp eq i32 %7, %10
  br i1 %11, label %12, label %42

12:                                               ; preds = %2
  %13 = load ptr, ptr %3, align 8, !tbaa !86
  %14 = getelementptr inbounds nuw %struct.Tas_Que_t_, ptr %13, i32 0, i32 2
  %15 = load i32, ptr %14, align 8, !tbaa !166
  %16 = mul nsw i32 %15, 2
  store i32 %16, ptr %14, align 8, !tbaa !166
  %17 = load ptr, ptr %3, align 8, !tbaa !86
  %18 = getelementptr inbounds nuw %struct.Tas_Que_t_, ptr %17, i32 0, i32 3
  %19 = load ptr, ptr %18, align 8, !tbaa !93
  %20 = icmp ne ptr %19, null
  br i1 %20, label %21, label %31

21:                                               ; preds = %12
  %22 = load ptr, ptr %3, align 8, !tbaa !86
  %23 = getelementptr inbounds nuw %struct.Tas_Que_t_, ptr %22, i32 0, i32 3
  %24 = load ptr, ptr %23, align 8, !tbaa !93
  %25 = load ptr, ptr %3, align 8, !tbaa !86
  %26 = getelementptr inbounds nuw %struct.Tas_Que_t_, ptr %25, i32 0, i32 2
  %27 = load i32, ptr %26, align 8, !tbaa !166
  %28 = sext i32 %27 to i64
  %29 = mul i64 8, %28
  %30 = call ptr @realloc(ptr noundef %24, i64 noundef %29) #15
  br label %38

31:                                               ; preds = %12
  %32 = load ptr, ptr %3, align 8, !tbaa !86
  %33 = getelementptr inbounds nuw %struct.Tas_Que_t_, ptr %32, i32 0, i32 2
  %34 = load i32, ptr %33, align 8, !tbaa !166
  %35 = sext i32 %34 to i64
  %36 = mul i64 8, %35
  %37 = call noalias ptr @malloc(i64 noundef %36) #13
  br label %38

38:                                               ; preds = %31, %21
  %39 = phi ptr [ %30, %21 ], [ %37, %31 ]
  %40 = load ptr, ptr %3, align 8, !tbaa !86
  %41 = getelementptr inbounds nuw %struct.Tas_Que_t_, ptr %40, i32 0, i32 3
  store ptr %39, ptr %41, align 8, !tbaa !93
  br label %42

42:                                               ; preds = %38, %2
  %43 = load ptr, ptr %4, align 8, !tbaa !80
  %44 = load ptr, ptr %3, align 8, !tbaa !86
  %45 = getelementptr inbounds nuw %struct.Tas_Que_t_, ptr %44, i32 0, i32 3
  %46 = load ptr, ptr %45, align 8, !tbaa !93
  %47 = load ptr, ptr %3, align 8, !tbaa !86
  %48 = getelementptr inbounds nuw %struct.Tas_Que_t_, ptr %47, i32 0, i32 1
  %49 = load i32, ptr %48, align 4, !tbaa !102
  %50 = add nsw i32 %49, 1
  store i32 %50, ptr %48, align 4, !tbaa !102
  %51 = sext i32 %49 to i64
  %52 = getelementptr inbounds ptr, ptr %46, i64 %51
  store ptr %43, ptr %52, align 8, !tbaa !80
  ret void
}

; Function Attrs: inlinehint nounwind uwtable
define internal i32 @Tas_ManResolve(ptr noundef %0, i32 noundef %1, i32 noundef %2, i32 noundef %3) #5 {
  %5 = alloca ptr, align 8
  %6 = alloca i32, align 4
  %7 = alloca i32, align 4
  %8 = alloca i32, align 4
  %9 = alloca ptr, align 8
  %10 = alloca ptr, align 8
  %11 = alloca i32, align 4
  %12 = alloca i32, align 4
  %13 = alloca i32, align 4
  store ptr %0, ptr %5, align 8, !tbaa !23
  store i32 %1, ptr %6, align 4, !tbaa !22
  store i32 %2, ptr %7, align 4, !tbaa !22
  store i32 %3, ptr %8, align 4, !tbaa !22
  call void @llvm.lifetime.start.p0(i64 8, ptr %9) #11
  %14 = load ptr, ptr %5, align 8, !tbaa !23
  %15 = getelementptr inbounds nuw %struct.Tas_Man_t_, ptr %14, i32 0, i32 4
  store ptr %15, ptr %9, align 8, !tbaa !86
  call void @llvm.lifetime.start.p0(i64 8, ptr %10) #11
  call void @llvm.lifetime.start.p0(i64 4, ptr %11) #11
  call void @llvm.lifetime.start.p0(i64 4, ptr %12) #11
  store i32 -1, ptr %12, align 4, !tbaa !22
  call void @llvm.lifetime.start.p0(i64 4, ptr %13) #11
  %16 = load ptr, ptr %9, align 8, !tbaa !86
  call void @Tas_QuePush(ptr noundef %16, ptr noundef null)
  %17 = load i32, ptr %7, align 4, !tbaa !22
  %18 = add nsw i32 %17, 1
  store i32 %18, ptr %11, align 4, !tbaa !22
  br label %19

19:                                               ; preds = %51, %4
  %20 = load ptr, ptr %9, align 8, !tbaa !86
  %21 = getelementptr inbounds nuw %struct.Tas_Que_t_, ptr %20, i32 0, i32 3
  %22 = load ptr, ptr %21, align 8, !tbaa !93
  %23 = load i32, ptr %11, align 4, !tbaa !22
  %24 = sext i32 %23 to i64
  %25 = getelementptr inbounds ptr, ptr %22, i64 %24
  %26 = load ptr, ptr %25, align 8, !tbaa !80
  store ptr %26, ptr %10, align 8, !tbaa !80
  %27 = icmp ne ptr %26, null
  br i1 %27, label %28, label %54

28:                                               ; preds = %19
  %29 = load ptr, ptr %10, align 8, !tbaa !80
  %30 = load i64, ptr %29, align 4
  %31 = lshr i64 %30, 63
  %32 = trunc i64 %31 to i32
  %33 = icmp ne i32 %32, 0
  br i1 %33, label %34, label %35

34:                                               ; preds = %28
  br label %51

35:                                               ; preds = %28
  %36 = load ptr, ptr %10, align 8, !tbaa !80
  %37 = load i64, ptr %36, align 4
  %38 = and i64 %37, 9223372036854775807
  %39 = or i64 %38, -9223372036854775808
  store i64 %39, ptr %36, align 4
  %40 = load ptr, ptr %9, align 8, !tbaa !86
  %41 = load ptr, ptr %10, align 8, !tbaa !80
  call void @Tas_QuePush(ptr noundef %40, ptr noundef %41)
  %42 = load ptr, ptr %5, align 8, !tbaa !23
  %43 = load ptr, ptr %10, align 8, !tbaa !80
  %44 = call i32 @Tas_VarDecLevel(ptr noundef %42, ptr noundef %43)
  store i32 %44, ptr %13, align 4, !tbaa !22
  %45 = load i32, ptr %12, align 4, !tbaa !22
  %46 = load i32, ptr %13, align 4, !tbaa !22
  %47 = icmp slt i32 %45, %46
  br i1 %47, label %48, label %50

48:                                               ; preds = %35
  %49 = load i32, ptr %13, align 4, !tbaa !22
  store i32 %49, ptr %12, align 4, !tbaa !22
  br label %50

50:                                               ; preds = %48, %35
  br label %51

51:                                               ; preds = %50, %34
  %52 = load i32, ptr %11, align 4, !tbaa !22
  %53 = add nsw i32 %52, 1
  store i32 %53, ptr %11, align 4, !tbaa !22
  br label %19, !llvm.loop !114

54:                                               ; preds = %19
  %55 = load i32, ptr %8, align 4, !tbaa !22
  %56 = add nsw i32 %55, 1
  store i32 %56, ptr %11, align 4, !tbaa !22
  br label %57

57:                                               ; preds = %89, %54
  %58 = load ptr, ptr %9, align 8, !tbaa !86
  %59 = getelementptr inbounds nuw %struct.Tas_Que_t_, ptr %58, i32 0, i32 3
  %60 = load ptr, ptr %59, align 8, !tbaa !93
  %61 = load i32, ptr %11, align 4, !tbaa !22
  %62 = sext i32 %61 to i64
  %63 = getelementptr inbounds ptr, ptr %60, i64 %62
  %64 = load ptr, ptr %63, align 8, !tbaa !80
  store ptr %64, ptr %10, align 8, !tbaa !80
  %65 = icmp ne ptr %64, null
  br i1 %65, label %66, label %92

66:                                               ; preds = %57
  %67 = load ptr, ptr %10, align 8, !tbaa !80
  %68 = load i64, ptr %67, align 4
  %69 = lshr i64 %68, 63
  %70 = trunc i64 %69 to i32
  %71 = icmp ne i32 %70, 0
  br i1 %71, label %72, label %73

72:                                               ; preds = %66
  br label %89

73:                                               ; preds = %66
  %74 = load ptr, ptr %10, align 8, !tbaa !80
  %75 = load i64, ptr %74, align 4
  %76 = and i64 %75, 9223372036854775807
  %77 = or i64 %76, -9223372036854775808
  store i64 %77, ptr %74, align 4
  %78 = load ptr, ptr %9, align 8, !tbaa !86
  %79 = load ptr, ptr %10, align 8, !tbaa !80
  call void @Tas_QuePush(ptr noundef %78, ptr noundef %79)
  %80 = load ptr, ptr %5, align 8, !tbaa !23
  %81 = load ptr, ptr %10, align 8, !tbaa !80
  %82 = call i32 @Tas_VarDecLevel(ptr noundef %80, ptr noundef %81)
  store i32 %82, ptr %13, align 4, !tbaa !22
  %83 = load i32, ptr %12, align 4, !tbaa !22
  %84 = load i32, ptr %13, align 4, !tbaa !22
  %85 = icmp slt i32 %83, %84
  br i1 %85, label %86, label %88

86:                                               ; preds = %73
  %87 = load i32, ptr %13, align 4, !tbaa !22
  store i32 %87, ptr %12, align 4, !tbaa !22
  br label %88

88:                                               ; preds = %86, %73
  br label %89

89:                                               ; preds = %88, %72
  %90 = load i32, ptr %11, align 4, !tbaa !22
  %91 = add nsw i32 %90, 1
  store i32 %91, ptr %11, align 4, !tbaa !22
  br label %57, !llvm.loop !115

92:                                               ; preds = %57
  %93 = load ptr, ptr %9, align 8, !tbaa !86
  %94 = getelementptr inbounds nuw %struct.Tas_Que_t_, ptr %93, i32 0, i32 0
  %95 = load i32, ptr %94, align 8, !tbaa !101
  %96 = add nsw i32 %95, 1
  store i32 %96, ptr %11, align 4, !tbaa !22
  br label %97

97:                                               ; preds = %114, %92
  %98 = load i32, ptr %11, align 4, !tbaa !22
  %99 = load ptr, ptr %9, align 8, !tbaa !86
  %100 = getelementptr inbounds nuw %struct.Tas_Que_t_, ptr %99, i32 0, i32 1
  %101 = load i32, ptr %100, align 4, !tbaa !102
  %102 = icmp slt i32 %98, %101
  br i1 %102, label %103, label %117

103:                                              ; preds = %97
  %104 = load ptr, ptr %9, align 8, !tbaa !86
  %105 = getelementptr inbounds nuw %struct.Tas_Que_t_, ptr %104, i32 0, i32 3
  %106 = load ptr, ptr %105, align 8, !tbaa !93
  %107 = load i32, ptr %11, align 4, !tbaa !22
  %108 = sext i32 %107 to i64
  %109 = getelementptr inbounds ptr, ptr %106, i64 %108
  %110 = load ptr, ptr %109, align 8, !tbaa !80
  %111 = load i64, ptr %110, align 4
  %112 = and i64 %111, 9223372036854775807
  %113 = or i64 %112, 0
  store i64 %113, ptr %110, align 4
  br label %114

114:                                              ; preds = %103
  %115 = load i32, ptr %11, align 4, !tbaa !22
  %116 = add nsw i32 %115, 1
  store i32 %116, ptr %11, align 4, !tbaa !22
  br label %97, !llvm.loop !116

117:                                              ; preds = %97
  %118 = load ptr, ptr %5, align 8, !tbaa !23
  %119 = load i32, ptr %12, align 4, !tbaa !22
  call void @Tas_ManDeriveReason(ptr noundef %118, i32 noundef %119)
  %120 = load ptr, ptr %9, align 8, !tbaa !86
  %121 = call i32 @Tas_QueFinish(ptr noundef %120)
  call void @llvm.lifetime.end.p0(i64 4, ptr %13) #11
  call void @llvm.lifetime.end.p0(i64 4, ptr %12) #11
  call void @llvm.lifetime.end.p0(i64 4, ptr %11) #11
  call void @llvm.lifetime.end.p0(i64 8, ptr %10) #11
  call void @llvm.lifetime.end.p0(i64 8, ptr %9) #11
  ret i32 %121
}