; Function Attrs: inlinehint nounwind uwtable
define internal fastcc i32 @Tas_ManResolve(ptr noundef captures(none) %0, i32 noundef range(i32 1, 0) %1, i32 noundef range(i32 1, 0) %2) unnamed_addr #10 {
  %4 = getelementptr inbounds nuw i8, ptr %0, i64 112
  %5 = getelementptr inbounds nuw i8, ptr %0, i64 116
  %6 = load i32, ptr %5, align 4, !tbaa !80
  %7 = getelementptr inbounds nuw i8, ptr %0, i64 120
  %8 = load i32, ptr %7, align 8, !tbaa !81
  %9 = icmp eq i32 %6, %8
  br i1 %9, label %10, label %._crit_edge.i

._crit_edge.i:                                    ; preds = %3
  %.phi.trans.insert.i = getelementptr inbounds nuw i8, ptr %0, i64 128
  %.pre.i = load ptr, ptr %.phi.trans.insert.i, align 8, !tbaa !82
  br label %Tas_QuePush.exit

10:                                               ; preds = %3
  %11 = shl nsw i32 %6, 1
  store i32 %11, ptr %7, align 8, !tbaa !81
  %12 = getelementptr inbounds nuw i8, ptr %0, i64 128
  %13 = load ptr, ptr %12, align 8, !tbaa !82
  %.not.i = icmp eq ptr %13, null
  %14 = sext i32 %11 to i64
  %15 = shl nsw i64 %14, 3
  br i1 %.not.i, label %18, label %16

16:                                               ; preds = %10
  %17 = tail call ptr @realloc(ptr noundef nonnull %13, i64 noundef %15) #26
  %.pre12.pre.i = load i32, ptr %5, align 4, !tbaa !80
  br label %20

18:                                               ; preds = %10
  %19 = tail call noalias ptr @malloc(i64 noundef %15) #24
  br label %20

20:                                               ; preds = %18, %16
  %.pre12.i = phi i32 [ %.pre12.pre.i, %16 ], [ %6, %18 ]
  %21 = phi ptr [ %17, %16 ], [ %19, %18 ]
  store ptr %21, ptr %12, align 8, !tbaa !82
  br label %Tas_QuePush.exit

Tas_QuePush.exit:                                 ; preds = %._crit_edge.i, %20
  %22 = phi i32 [ %6, %._crit_edge.i ], [ %.pre12.i, %20 ]
  %23 = phi ptr [ %.pre.i, %._crit_edge.i ], [ %21, %20 ]
  %24 = add nsw i32 %22, 1
  store i32 %24, ptr %5, align 4, !tbaa !80
  %25 = sext i32 %22 to i64
  %26 = getelementptr inbounds ptr, ptr %23, i64 %25
  store ptr null, ptr %26, align 8, !tbaa !72
  %27 = getelementptr inbounds nuw i8, ptr %0, i64 128
  %.03664 = add nsw i32 %1, 1
  %28 = sext i32 %.03664 to i64
  %29 = getelementptr inbounds ptr, ptr %23, i64 %28
  %30 = load ptr, ptr %29, align 8, !tbaa !72
  %.not65 = icmp eq ptr %30, null
  br i1 %.not65, label %.preheader, label %.lr.ph

.lr.ph:                                           ; preds = %Tas_QuePush.exit
  %31 = getelementptr i8, ptr %0, i64 144
  br label %38

.preheader:                                       ; preds = %70, %Tas_QuePush.exit
  %32 = phi i32 [ %24, %Tas_QuePush.exit ], [ %71, %70 ]
  %33 = phi ptr [ %23, %Tas_QuePush.exit ], [ %72, %70 ]
  %.0.lcssa = phi i32 [ -1, %Tas_QuePush.exit ], [ %.1, %70 ]
  %.13768 = add nsw i32 %2, 1
  %34 = sext i32 %.13768 to i64
  %35 = getelementptr inbounds ptr, ptr %33, i64 %34
  %36 = load ptr, ptr %35, align 8, !tbaa !72
  %.not4369 = icmp eq ptr %36, null
  br i1 %.not4369, label %._crit_edge, label %.lr.ph72

.lr.ph72:                                         ; preds = %.preheader
  %37 = getelementptr i8, ptr %0, i64 144
  br label %75

38:                                               ; preds = %.lr.ph, %70
  %39 = phi i32 [ %24, %.lr.ph ], [ %71, %70 ]
  %40 = phi ptr [ %23, %.lr.ph ], [ %72, %70 ]
  %indvars.iv = phi i64 [ %28, %.lr.ph ], [ %indvars.iv.next, %70 ]
  %41 = phi ptr [ %30, %.lr.ph ], [ %74, %70 ]
  %.066 = phi i32 [ -1, %.lr.ph ], [ %.1, %70 ]
  %42 = load i64, ptr %41, align 4
  %.not45 = icmp sgt i64 %42, -1
  br i1 %.not45, label %43, label %70

43:                                               ; preds = %38
  %44 = or disjoint i64 %42, -9223372036854775808
  store i64 %44, ptr %41, align 4
  %45 = load i32, ptr %5, align 4, !tbaa !80
  %46 = load i32, ptr %7, align 8, !tbaa !81
  %47 = icmp eq i32 %45, %46
  br i1 %47, label %48, label %._crit_edge.i50

._crit_edge.i50:                                  ; preds = %43
  %.pre.i52 = load ptr, ptr %27, align 8, !tbaa !82
  br label %Tas_QuePush.exit56

48:                                               ; preds = %43
  %49 = shl nsw i32 %45, 1
  store i32 %49, ptr %7, align 8, !tbaa !81
  %50 = load ptr, ptr %27, align 8, !tbaa !82
  %.not.i53 = icmp eq ptr %50, null
  %51 = sext i32 %49 to i64
  %52 = shl nsw i64 %51, 3
  br i1 %.not.i53, label %55, label %53

53:                                               ; preds = %48
  %54 = tail call ptr @realloc(ptr noundef nonnull %50, i64 noundef %52) #26
  %.pre12.pre.i54 = load i32, ptr %5, align 4, !tbaa !80
  br label %57

55:                                               ; preds = %48
  %56 = tail call noalias ptr @malloc(i64 noundef %52) #24
  br label %57

57:                                               ; preds = %55, %53
  %.pre12.i55 = phi i32 [ %.pre12.pre.i54, %53 ], [ %45, %55 ]
  %58 = phi ptr [ %54, %53 ], [ %56, %55 ]
  store ptr %58, ptr %27, align 8, !tbaa !82
  br label %Tas_QuePush.exit56

Tas_QuePush.exit56:                               ; preds = %._crit_edge.i50, %57
  %59 = phi i32 [ %45, %._crit_edge.i50 ], [ %.pre12.i55, %57 ]
  %60 = phi ptr [ %.pre.i52, %._crit_edge.i50 ], [ %58, %57 ]
  %61 = add nsw i32 %59, 1
  store i32 %61, ptr %5, align 4, !tbaa !80
  %62 = sext i32 %59 to i64
  %63 = getelementptr inbounds ptr, ptr %60, i64 %62
  store ptr %41, ptr %63, align 8, !tbaa !72
  %.val = load ptr, ptr %31, align 8, !tbaa !43
  %64 = getelementptr i8, ptr %41, i64 8
  %.val47 = load i32, ptr %64, align 4, !tbaa !106
  %65 = getelementptr i8, ptr %.val, i64 8
  %.val.val = load ptr, ptr %65, align 8, !tbaa !41
  %66 = mul i32 %.val47, 3
  %67 = sext i32 %66 to i64
  %68 = getelementptr inbounds i32, ptr %.val.val, i64 %67
  %69 = load i32, ptr %68, align 4, !tbaa !75
  %spec.select = tail call i32 @llvm.smax.i32(i32 %.066, i32 %69)
  br label %70

70:                                               ; preds = %Tas_QuePush.exit56, %38
  %71 = phi i32 [ %39, %38 ], [ %61, %Tas_QuePush.exit56 ]
  %72 = phi ptr [ %40, %38 ], [ %60, %Tas_QuePush.exit56 ]
  %.1 = phi i32 [ %.066, %38 ], [ %spec.select, %Tas_QuePush.exit56 ]
  %indvars.iv.next = add nsw i64 %indvars.iv, 1
  %73 = getelementptr inbounds ptr, ptr %72, i64 %indvars.iv.next
  %74 = load ptr, ptr %73, align 8, !tbaa !72
  %.not = icmp eq ptr %74, null
  br i1 %.not, label %.preheader, label %38, !llvm.loop !109

75:                                               ; preds = %.lr.ph72, %107
  %76 = phi i32 [ %32, %.lr.ph72 ], [ %108, %107 ]
  %77 = phi ptr [ %33, %.lr.ph72 ], [ %109, %107 ]
  %indvars.iv80 = phi i64 [ %34, %.lr.ph72 ], [ %indvars.iv.next81, %107 ]
  %78 = phi ptr [ %36, %.lr.ph72 ], [ %111, %107 ]
  %.270 = phi i32 [ %.0.lcssa, %.lr.ph72 ], [ %.3, %107 ]
  %79 = load i64, ptr %78, align 4
  %.not44 = icmp sgt i64 %79, -1
  br i1 %.not44, label %80, label %107

80:                                               ; preds = %75
  %81 = or disjoint i64 %79, -9223372036854775808
  store i64 %81, ptr %78, align 4
  %82 = load i32, ptr %5, align 4, !tbaa !80
  %83 = load i32, ptr %7, align 8, !tbaa !81
  %84 = icmp eq i32 %82, %83
  br i1 %84, label %85, label %._crit_edge.i57

._crit_edge.i57:                                  ; preds = %80
  %.pre.i59 = load ptr, ptr %27, align 8, !tbaa !82
  br label %Tas_QuePush.exit63

85:                                               ; preds = %80
  %86 = shl nsw i32 %82, 1
  store i32 %86, ptr %7, align 8, !tbaa !81
  %87 = load ptr, ptr %27, align 8, !tbaa !82
  %.not.i60 = icmp eq ptr %87, null
  %88 = sext i32 %86 to i64
  %89 = shl nsw i64 %88, 3
  br i1 %.not.i60, label %92, label %90

90:                                               ; preds = %85
  %91 = tail call ptr @realloc(ptr noundef nonnull %87, i64 noundef %89) #26
  %.pre12.pre.i61 = load i32, ptr %5, align 4, !tbaa !80
  br label %94

92:                                               ; preds = %85
  %93 = tail call noalias ptr @malloc(i64 noundef %89) #24
  br label %94

94:                                               ; preds = %92, %90
  %.pre12.i62 = phi i32 [ %.pre12.pre.i61, %90 ], [ %82, %92 ]
  %95 = phi ptr [ %91, %90 ], [ %93, %92 ]
  store ptr %95, ptr %27, align 8, !tbaa !82
  br label %Tas_QuePush.exit63

Tas_QuePush.exit63:                               ; preds = %._crit_edge.i57, %94
  %96 = phi i32 [ %82, %._crit_edge.i57 ], [ %.pre12.i62, %94 ]
  %97 = phi ptr [ %.pre.i59, %._crit_edge.i57 ], [ %95, %94 ]
  %98 = add nsw i32 %96, 1
  store i32 %98, ptr %5, align 4, !tbaa !80
  %99 = sext i32 %96 to i64
  %100 = getelementptr inbounds ptr, ptr %97, i64 %99
  store ptr %78, ptr %100, align 8, !tbaa !72
  %.val48 = load ptr, ptr %37, align 8, !tbaa !43
  %101 = getelementptr i8, ptr %78, i64 8
  %.val49 = load i32, ptr %101, align 4, !tbaa !106
  %102 = getelementptr i8, ptr %.val48, i64 8
  %.val48.val = load ptr, ptr %102, align 8, !tbaa !41
  %103 = mul i32 %.val49, 3
  %104 = sext i32 %103 to i64
  %105 = getelementptr inbounds i32, ptr %.val48.val, i64 %104
  %106 = load i32, ptr %105, align 4, !tbaa !75
  %spec.select46 = tail call i32 @llvm.smax.i32(i32 %.270, i32 %106)
  br label %107

107:                                              ; preds = %Tas_QuePush.exit63, %75
  %108 = phi i32 [ %76, %75 ], [ %98, %Tas_QuePush.exit63 ]
  %109 = phi ptr [ %77, %75 ], [ %97, %Tas_QuePush.exit63 ]
  %.3 = phi i32 [ %.270, %75 ], [ %spec.select46, %Tas_QuePush.exit63 ]
  %indvars.iv.next81 = add nsw i64 %indvars.iv80, 1
  %110 = getelementptr inbounds ptr, ptr %109, i64 %indvars.iv.next81
  %111 = load ptr, ptr %110, align 8, !tbaa !72
  %.not43 = icmp eq ptr %111, null
  br i1 %.not43, label %._crit_edge, label %75, !llvm.loop !110

._crit_edge:                                      ; preds = %107, %.preheader
  %112 = phi i32 [ %32, %.preheader ], [ %108, %107 ]
  %.2.lcssa = phi i32 [ %.0.lcssa, %.preheader ], [ %.3, %107 ]
  %113 = load i32, ptr %4, align 8, !tbaa !84
  %.23874 = add nsw i32 %113, 1
  %114 = icmp slt i32 %.23874, %112
  br i1 %114, label %.lr.ph77.preheader, label %._crit_edge78

.lr.ph77.preheader:                               ; preds = %._crit_edge
  %115 = sext i32 %113 to i64
  %116 = add nsw i64 %115, 1
  br label %.lr.ph77

.lr.ph77:                                         ; preds = %.lr.ph77.preheader, %.lr.ph77
  %indvars.iv83 = phi i64 [ %116, %.lr.ph77.preheader ], [ %indvars.iv.next84, %.lr.ph77 ]
  %117 = load ptr, ptr %27, align 8, !tbaa !82
  %118 = getelementptr inbounds ptr, ptr %117, i64 %indvars.iv83
  %119 = load ptr, ptr %118, align 8, !tbaa !72
  %120 = load i64, ptr %119, align 4
  %121 = and i64 %120, 9223372036854775807
  store i64 %121, ptr %119, align 4
  %indvars.iv.next84 = add nsw i64 %indvars.iv83, 1
  %122 = load i32, ptr %5, align 4, !tbaa !80
  %123 = sext i32 %122 to i64
  %124 = icmp slt i64 %indvars.iv.next84, %123
  br i1 %124, label %.lr.ph77, label %._crit_edge78, !llvm.loop !111

._crit_edge78:                                    ; preds = %.lr.ph77, %._crit_edge
  tail call fastcc void @Tas_ManDeriveReason(ptr noundef nonnull %0, i32 noundef %.2.lcssa)
  %125 = load i32, ptr %4, align 8, !tbaa !84
  %126 = load i32, ptr %5, align 4, !tbaa !80
  %127 = load i32, ptr %7, align 8, !tbaa !81
  %128 = icmp eq i32 %126, %127
  br i1 %128, label %129, label %._crit_edge.i.i

._crit_edge.i.i:                                  ; preds = %._crit_edge78
  %.pre.i.i = load ptr, ptr %27, align 8, !tbaa !82
  br label %Tas_QueFinish.exit

129:                                              ; preds = %._crit_edge78
  %130 = shl nsw i32 %126, 1
  store i32 %130, ptr %7, align 8, !tbaa !81
  %131 = load ptr, ptr %27, align 8, !tbaa !82
  %.not.i.i = icmp eq ptr %131, null
  %132 = sext i32 %130 to i64
  %133 = shl nsw i64 %132, 3
  br i1 %.not.i.i, label %136, label %134

134:                                              ; preds = %129
  %135 = tail call ptr @realloc(ptr noundef nonnull %131, i64 noundef %133) #26
  %.pre12.pre.i.i = load i32, ptr %5, align 4, !tbaa !80
  br label %138

136:                                              ; preds = %129
  %137 = tail call noalias ptr @malloc(i64 noundef %133) #24
  br label %138

138:                                              ; preds = %136, %134
  %.pre12.i.i = phi i32 [ %.pre12.pre.i.i, %134 ], [ %126, %136 ]
  %139 = phi ptr [ %135, %134 ], [ %137, %136 ]
  store ptr %139, ptr %27, align 8, !tbaa !82
  br label %Tas_QueFinish.exit

Tas_QueFinish.exit:                               ; preds = %._crit_edge.i.i, %138
  %140 = phi i32 [ %126, %._crit_edge.i.i ], [ %.pre12.i.i, %138 ]
  %141 = phi ptr [ %.pre.i.i, %._crit_edge.i.i ], [ %139, %138 ]
  %142 = add nsw i32 %140, 1
  store i32 %142, ptr %5, align 4, !tbaa !80
  %143 = sext i32 %140 to i64
  %144 = getelementptr inbounds ptr, ptr %141, i64 %143
  store ptr null, ptr %144, align 8, !tbaa !72
  store i32 %142, ptr %4, align 8, !tbaa !84
  ret i32 %125
}